target datalayout = "e-m:e-p270:32:32-p271:32:32-p272:64:64-i64:64-i128:128-f80:128-n8:16:32:64-S128"
target triple = "x86_64-pc-linux-gnu"

%struct.PLpgSQL_execstate = type { ptr, ptr, ptr, i64, i8, i32, i32, i8, i8, i8, i8, ptr, ptr, ptr, ptr, ptr, ptr, ptr, i32, i32, ptr, ptr, ptr, ptr, ptr, ptr, ptr, ptr, ptr, ptr, i64, ptr, ptr, ptr, ptr, ptr }
%struct.PLpgSQL_function = type { ptr, i32, i32, %struct.ItemPointerData, i32, i32, ptr, ptr, i32, i32, i8, i8, i8, i8, i8, i8, i32, [100 x i32], i32, i32, i32, i32, i32, i8, i32, i32, i32, ptr, i64, ptr, i32, i8, i8, ptr, i64 }
%struct.ItemPointerData = type { %struct.BlockIdData, i16 }
%struct.BlockIdData = type { i16, i16 }
%struct.PLpgSQL_datum = type { i32, i32 }

@.str.2 = private unnamed_addr constant [11 x i8] c"plpgsql-18\00", align 1
@.str.3 = private unnamed_addr constant [23 x i8] c"unrecognized dtype: %d\00", align 1
@.str.4 = private unnamed_addr constant [10 x i8] c"pl_exec.c\00", align 1
@__func__.copy_plpgsql_datums = private unnamed_addr constant [20 x i8] c"copy_plpgsql_datums\00", align 1

; Function Attrs: nounwind uwtable
define internal void @copy_plpgsql_datums(ptr noundef %0, ptr noundef %1) #0 {
  %3 = alloca ptr, align 8
  %4 = alloca ptr, align 8
  %5 = alloca i32, align 4
  %6 = alloca ptr, align 8
  %7 = alloca ptr, align 8
  %8 = alloca ptr, align 8
  %9 = alloca ptr, align 8
  %10 = alloca i32, align 4
  %11 = alloca ptr, align 8
  %12 = alloca ptr, align 8
  store ptr %0, ptr %3, align 8
  store ptr %1, ptr %4, align 8
  call void @llvm.lifetime.start.p0(i64 4, ptr %5) #12
  %13 = load ptr, ptr %3, align 8
  %14 = getelementptr inbounds nuw %struct.PLpgSQL_execstate, ptr %13, i32 0, i32 19
  %15 = load i32, ptr %14, align 4
  store i32 %15, ptr %5, align 4
  call void @llvm.lifetime.start.p0(i64 8, ptr %6) #12
  call void @llvm.lifetime.start.p0(i64 8, ptr %7) #12
  call void @llvm.lifetime.start.p0(i64 8, ptr %8) #12
  call void @llvm.lifetime.start.p0(i64 8, ptr %9) #12
  call void @llvm.lifetime.start.p0(i64 4, ptr %10) #12
  %16 = load i32, ptr %5, align 4
  %17 = sext i32 %16 to i64
  %18 = mul i64 8, %17
  %19 = call ptr @palloc(i64 noundef %18)
  %20 = load ptr, ptr %3, align 8
  %21 = getelementptr inbounds nuw %struct.PLpgSQL_execstate, ptr %20, i32 0, i32 20
  store ptr %19, ptr %21, align 8
  %22 = load ptr, ptr %4, align 8
  %23 = getelementptr inbounds nuw %struct.PLpgSQL_function, ptr %22, i32 0, i32 28
  %24 = load i64, ptr %23, align 8
  %25 = call ptr @palloc(i64 noundef %24)
  store ptr %25, ptr %8, align 8
  %26 = load ptr, ptr %8, align 8
  store ptr %26, ptr %9, align 8
  %27 = load ptr, ptr %4, align 8
  %28 = getelementptr inbounds nuw %struct.PLpgSQL_function, ptr %27, i32 0, i32 27
  %29 = load ptr, ptr %28, align 8
  store ptr %29, ptr %6, align 8
  %30 = load ptr, ptr %3, align 8
  %31 = getelementptr inbounds nuw %struct.PLpgSQL_execstate, ptr %30, i32 0, i32 20
  %32 = load ptr, ptr %31, align 8
  store ptr %32, ptr %7, align 8
  store i32 0, ptr %10, align 4
  br label %33

33:                                               ; preds = %80, %2
  %34 = load i32, ptr %10, align 4
  %35 = load i32, ptr %5, align 4
  %36 = icmp slt i32 %34, %35
  br i1 %36, label %37, label %83

37:                                               ; preds = %33
  call void @llvm.lifetime.start.p0(i64 8, ptr %11) #12
  %38 = load ptr, ptr %6, align 8
  %39 = load i32, ptr %10, align 4
  %40 = sext i32 %39 to i64
  %41 = getelementptr inbounds ptr, ptr %38, i64 %40
  %42 = load ptr, ptr %41, align 8
  store ptr %42, ptr %11, align 8
  call void @llvm.lifetime.start.p0(i64 8, ptr %12) #12
  %43 = load ptr, ptr %11, align 8
  %44 = getelementptr inbounds nuw %struct.PLpgSQL_datum, ptr %43, i32 0, i32 0
  %45 = load i32, ptr %44, align 4
  switch i32 %45, label %60 [
    i32 0, label %46
    i32 4, label %46
    i32 2, label %52
    i32 1, label %58
    i32 3, label %58
  ]

46:                                               ; preds = %37, %37
  %47 = load ptr, ptr %9, align 8
  store ptr %47, ptr %12, align 8
  %48 = load ptr, ptr %12, align 8
  %49 = load ptr, ptr %11, align 8
  call void @llvm.memcpy.p0.p0.i64(ptr align 4 %48, ptr align 4 %49, i64 72, i1 false)
  %50 = load ptr, ptr %9, align 8
  %51 = getelementptr inbounds nuw i8, ptr %50, i64 72
  store ptr %51, ptr %9, align 8
  br label %74

52:                                               ; preds = %37
  %53 = load ptr, ptr %9, align 8
  store ptr %53, ptr %12, align 8
  %54 = load ptr, ptr %12, align 8
  %55 = load ptr, ptr %11, align 8
  call void @llvm.memcpy.p0.p0.i64(ptr align 4 %54, ptr align 4 %55, i64 56, i1 false)
  %56 = load ptr, ptr %9, align 8
  %57 = getelementptr inbounds nuw i8, ptr %56, i64 56
  store ptr %57, ptr %9, align 8
  br label %74

58:                                               ; preds = %37, %37
  %59 = load ptr, ptr %11, align 8
  store ptr %59, ptr %12, align 8
  br label %74

60:                                               ; preds = %37
  br label %61

61:                                               ; preds = %60
  br i1 true, label %62, label %64

62:                                               ; preds = %61
  %63 = call zeroext i1 @errstart_cold(i32 noundef 21, ptr noundef @.str.2) #13
  br i1 %63, label %66, label %71

64:                                               ; preds = %61
  %65 = call zeroext i1 @errstart(i32 noundef 21, ptr noundef @.str.2)
  br i1 %65, label %66, label %71

66:                                               ; preds = %64, %62
  %67 = load ptr, ptr %11, align 8
  %68 = getelementptr inbounds nuw %struct.PLpgSQL_datum, ptr %67, i32 0, i32 0
  %69 = load i32, ptr %68, align 4
  %70 = call i32 (ptr, ...) @errmsg_internal(ptr noundef @.str.3, i32 noundef %69)
  call void @errfinish(ptr noundef @.str.4, i32 noundef 1367, ptr noundef @__func__.copy_plpgsql_datums)
  br label %71

71:                                               ; preds = %66, %64, %62
  unreachable

72:                                               ; No predecessors!
  br label %73

73:                                               ; preds = %72
  store ptr null, ptr %12, align 8
  br label %74

74:                                               ; preds = %73, %58, %52, %46
  %75 = load ptr, ptr %12, align 8
  %76 = load ptr, ptr %7, align 8
  %77 = load i32, ptr %10, align 4
  %78 = sext i32 %77 to i64
  %79 = getelementptr inbounds ptr, ptr %76, i64 %78
  store ptr %75, ptr %79, align 8
  call void @llvm.lifetime.end.p0(i64 8, ptr %12) #12
  call void @llvm.lifetime.end.p0(i64 8, ptr %11) #12
  br label %80

80:                                               ; preds = %74
  %81 = load i32, ptr %10, align 4
  %82 = add i32 %81, 1
  store i32 %82, ptr %10, align 4
  br label %33, !llvm.loop !7

83:                                               ; preds = %33
  call void @llvm.lifetime.end.p0(i64 4, ptr %10) #12
  call void @llvm.lifetime.end.p0(i64 8, ptr %9) #12
  call void @llvm.lifetime.end.p0(i64 8, ptr %8) #12
  call void @llvm.lifetime.end.p0(i64 8, ptr %7) #12
  call void @llvm.lifetime.end.p0(i64 8, ptr %6) #12
  call void @llvm.lifetime.end.p0(i64 4, ptr %5) #12
  ret void
}