; Function Attrs: nounwind uwtable
define internal fastcc void @copy_plpgsql_datums(ptr noundef nonnull captures(none) initializes((112, 120)) %0, ptr noundef readonly captures(none) %1) unnamed_addr #0 {
  %3 = getelementptr inbounds nuw i8, ptr %0, i64 108
  %4 = load i32, ptr %3, align 4
  %5 = sext i32 %4 to i64
  %6 = shl nsw i64 %5, 3
  %7 = tail call ptr @palloc(i64 noundef %6) #12
  %8 = getelementptr inbounds nuw i8, ptr %0, i64 112
  store ptr %7, ptr %8, align 8
  %9 = getelementptr inbounds nuw i8, ptr %1, i64 512
  %10 = load i64, ptr %9, align 8
  %11 = tail call ptr @palloc(i64 noundef %10) #12
  %12 = getelementptr inbounds nuw i8, ptr %1, i64 504
  %13 = load ptr, ptr %12, align 8
  %14 = load ptr, ptr %8, align 8
  %15 = icmp sgt i32 %4, 0
  br i1 %15, label %.lr.ph.preheader, label %._crit_edge

.lr.ph.preheader:                                 ; preds = %2
  %wide.trip.count = zext nneg i32 %4 to i64
  br label %.lr.ph

.lr.ph:                                           ; preds = %.lr.ph.preheader, %27
  %indvars.iv = phi i64 [ 0, %.lr.ph.preheader ], [ %indvars.iv.next, %27 ]
  %.02528 = phi ptr [ %11, %.lr.ph.preheader ], [ %.1, %27 ]
  %16 = getelementptr inbounds nuw ptr, ptr %13, i64 %indvars.iv
  %17 = load ptr, ptr %16, align 8
  %18 = load i32, ptr %17, align 4
  switch i32 %18, label %23 [
    i32 0, label %19
    i32 4, label %19
    i32 2, label %21
    i32 1, label %27
    i32 3, label %27
  ]

19:                                               ; preds = %.lr.ph, %.lr.ph
  tail call void @llvm.memcpy.p0.p0.i64(ptr noundef nonnull align 4 dereferenceable(72) %.02528, ptr noundef nonnull align 4 dereferenceable(72) %17, i64 72, i1 false)
  %20 = getelementptr inbounds nuw i8, ptr %.02528, i64 72
  br label %27

21:                                               ; preds = %.lr.ph
  tail call void @llvm.memcpy.p0.p0.i64(ptr noundef nonnull align 4 dereferenceable(56) %.02528, ptr noundef nonnull align 4 dereferenceable(56) %17, i64 56, i1 false)
  %22 = getelementptr inbounds nuw i8, ptr %.02528, i64 56
  br label %27

23:                                               ; preds = %.lr.ph
  %24 = tail call zeroext i1 @errstart_cold(i32 noundef 21, ptr noundef nonnull @.str.2) #13
  tail call void @llvm.assume(i1 %24)
  %25 = load i32, ptr %17, align 4
  %26 = tail call i32 (ptr, ...) @errmsg_internal(ptr noundef nonnull @.str.3, i32 noundef %25) #12
  tail call void @errfinish(ptr noundef nonnull @.str.4, i32 noundef 1367, ptr noundef nonnull @__func__.copy_plpgsql_datums) #12
  unreachable

27:                                               ; preds = %.lr.ph, %.lr.ph, %21, %19
  %.1 = phi ptr [ %22, %21 ], [ %20, %19 ], [ %.02528, %.lr.ph ], [ %.02528, %.lr.ph ]
  %.0 = phi ptr [ %.02528, %21 ], [ %.02528, %19 ], [ %17, %.lr.ph ], [ %17, %.lr.ph ]
  %28 = getelementptr inbounds nuw ptr, ptr %14, i64 %indvars.iv
  store ptr %.0, ptr %28, align 8
  %indvars.iv.next = add nuw nsw i64 %indvars.iv, 1
  %exitcond.not = icmp eq i64 %indvars.iv.next, %wide.trip.count
  br i1 %exitcond.not, label %._crit_edge, label %.lr.ph, !llvm.loop !8

._crit_edge:                                      ; preds = %27, %2
  ret void
}